target datalayout = "e-m:e-p270:32:32-p271:32:32-p272:64:64-i64:64-i128:128-f80:128-n8:16:32:64-S128"
target triple = "x86_64-pc-linux-gnu"

%struct.AVMotionEstContext = type { ptr, ptr, i32, i32, i32, i32, i32, i32, i32, i32, i32, i32, i32, [2 x %struct.AVMotionEstPredictor], ptr }
%struct.AVMotionEstPredictor = type { [10 x [2 x i32]], i32 }

@sqr1 = internal constant [8 x [2 x i8]] [[2 x i8] c"\00\FF", [2 x i8] c"\00\01", [2 x i8] c"\FF\00", [2 x i8] c"\01\00", [2 x i8] c"\FF\FF", [2 x i8] c"\FF\01", [2 x i8] c"\01\FF", [2 x i8] c"\01\01"], align 16

; Function Attrs: nounwind uwtable
define i64 @ff_me_search_fss(ptr noundef %0, i32 noundef %1, i32 noundef %2, ptr noundef %3) #0 {
  %5 = alloca i64, align 8
  %6 = alloca ptr, align 8
  %7 = alloca i32, align 4
  %8 = alloca i32, align 4
  %9 = alloca ptr, align 8
  %10 = alloca i32, align 4
  %11 = alloca i32, align 4
  %12 = alloca i32, align 4
  %13 = alloca i32, align 4
  %14 = alloca i32, align 4
  %15 = alloca i32, align 4
  %16 = alloca i64, align 8
  %17 = alloca i64, align 8
  %18 = alloca i32, align 4
  %19 = alloca i32, align 4
  %20 = alloca i32, align 4
  store ptr %0, ptr %6, align 8, !tbaa !4
  store i32 %1, ptr %7, align 4, !tbaa !9
  store i32 %2, ptr %8, align 4, !tbaa !9
  store ptr %3, ptr %9, align 8, !tbaa !32
  call void @llvm.lifetime.start.p0(i64 4, ptr %10) #2
  call void @llvm.lifetime.start.p0(i64 4, ptr %11) #2
  call void @llvm.lifetime.start.p0(i64 4, ptr %12) #2
  %21 = load ptr, ptr %6, align 8, !tbaa !4
  %22 = getelementptr inbounds nuw %struct.AVMotionEstContext, ptr %21, i32 0, i32 7
  %23 = load i32, ptr %22, align 4, !tbaa !18
  %24 = load i32, ptr %7, align 4, !tbaa !9
  %25 = load ptr, ptr %6, align 8, !tbaa !4
  %26 = getelementptr inbounds nuw %struct.AVMotionEstContext, ptr %25, i32 0, i32 4
  %27 = load i32, ptr %26, align 8, !tbaa !16
  %28 = sub nsw i32 %24, %27
  %29 = icmp sgt i32 %23, %28
  br i1 %29, label %30, label %34

30:                                               ; preds = %4
  %31 = load ptr, ptr %6, align 8, !tbaa !4
  %32 = getelementptr inbounds nuw %struct.AVMotionEstContext, ptr %31, i32 0, i32 7
  %33 = load i32, ptr %32, align 4, !tbaa !18
  br label %40

34:                                               ; preds = %4
  %35 = load i32, ptr %7, align 4, !tbaa !9
  %36 = load ptr, ptr %6, align 8, !tbaa !4
  %37 = getelementptr inbounds nuw %struct.AVMotionEstContext, ptr %36, i32 0, i32 4
  %38 = load i32, ptr %37, align 8, !tbaa !16
  %39 = sub nsw i32 %35, %38
  br label %40

40:                                               ; preds = %34, %30
  %41 = phi i32 [ %33, %30 ], [ %39, %34 ]
  store i32 %41, ptr %12, align 4, !tbaa !9
  call void @llvm.lifetime.start.p0(i64 4, ptr %13) #2
  %42 = load ptr, ptr %6, align 8, !tbaa !4
  %43 = getelementptr inbounds nuw %struct.AVMotionEstContext, ptr %42, i32 0, i32 9
  %44 = load i32, ptr %43, align 4, !tbaa !20
  %45 = load i32, ptr %8, align 4, !tbaa !9
  %46 = load ptr, ptr %6, align 8, !tbaa !4
  %47 = getelementptr inbounds nuw %struct.AVMotionEstContext, ptr %46, i32 0, i32 4
  %48 = load i32, ptr %47, align 8, !tbaa !16
  %49 = sub nsw i32 %45, %48
  %50 = icmp sgt i32 %44, %49
  br i1 %50, label %51, label %55

51:                                               ; preds = %40
  %52 = load ptr, ptr %6, align 8, !tbaa !4
  %53 = getelementptr inbounds nuw %struct.AVMotionEstContext, ptr %52, i32 0, i32 9
  %54 = load i32, ptr %53, align 4, !tbaa !20
  br label %61

55:                                               ; preds = %40
  %56 = load i32, ptr %8, align 4, !tbaa !9
  %57 = load ptr, ptr %6, align 8, !tbaa !4
  %58 = getelementptr inbounds nuw %struct.AVMotionEstContext, ptr %57, i32 0, i32 4
  %59 = load i32, ptr %58, align 8, !tbaa !16
  %60 = sub nsw i32 %56, %59
  br label %61

61:                                               ; preds = %55, %51
  %62 = phi i32 [ %54, %51 ], [ %60, %55 ]
  store i32 %62, ptr %13, align 4, !tbaa !9
  call void @llvm.lifetime.start.p0(i64 4, ptr %14) #2
  %63 = load i32, ptr %7, align 4, !tbaa !9
  %64 = load ptr, ptr %6, align 8, !tbaa !4
  %65 = getelementptr inbounds nuw %struct.AVMotionEstContext, ptr %64, i32 0, i32 4
  %66 = load i32, ptr %65, align 8, !tbaa !16
  %67 = add nsw i32 %63, %66
  %68 = load ptr, ptr %6, align 8, !tbaa !4
  %69 = getelementptr inbounds nuw %struct.AVMotionEstContext, ptr %68, i32 0, i32 8
  %70 = load i32, ptr %69, align 8, !tbaa !19
  %71 = icmp sgt i32 %67, %70
  br i1 %71, label %72, label %76

72:                                               ; preds = %61
  %73 = load ptr, ptr %6, align 8, !tbaa !4
  %74 = getelementptr inbounds nuw %struct.AVMotionEstContext, ptr %73, i32 0, i32 8
  %75 = load i32, ptr %74, align 8, !tbaa !19
  br label %82

76:                                               ; preds = %61
  %77 = load i32, ptr %7, align 4, !tbaa !9
  %78 = load ptr, ptr %6, align 8, !tbaa !4
  %79 = getelementptr inbounds nuw %struct.AVMotionEstContext, ptr %78, i32 0, i32 4
  %80 = load i32, ptr %79, align 8, !tbaa !16
  %81 = add nsw i32 %77, %80
  br label %82

82:                                               ; preds = %76, %72
  %83 = phi i32 [ %75, %72 ], [ %81, %76 ]
  store i32 %83, ptr %14, align 4, !tbaa !9
  call void @llvm.lifetime.start.p0(i64 4, ptr %15) #2
  %84 = load i32, ptr %8, align 4, !tbaa !9
  %85 = load ptr, ptr %6, align 8, !tbaa !4
  %86 = getelementptr inbounds nuw %struct.AVMotionEstContext, ptr %85, i32 0, i32 4
  %87 = load i32, ptr %86, align 8, !tbaa !16
  %88 = add nsw i32 %84, %87
  %89 = load ptr, ptr %6, align 8, !tbaa !4
  %90 = getelementptr inbounds nuw %struct.AVMotionEstContext, ptr %89, i32 0, i32 10
  %91 = load i32, ptr %90, align 8, !tbaa !21
  %92 = icmp sgt i32 %88, %91
  br i1 %92, label %93, label %97

93:                                               ; preds = %82
  %94 = load ptr, ptr %6, align 8, !tbaa !4
  %95 = getelementptr inbounds nuw %struct.AVMotionEstContext, ptr %94, i32 0, i32 10
  %96 = load i32, ptr %95, align 8, !tbaa !21
  br label %103

97:                                               ; preds = %82
  %98 = load i32, ptr %8, align 4, !tbaa !9
  %99 = load ptr, ptr %6, align 8, !tbaa !4
  %100 = getelementptr inbounds nuw %struct.AVMotionEstContext, ptr %99, i32 0, i32 4
  %101 = load i32, ptr %100, align 8, !tbaa !16
  %102 = add nsw i32 %98, %101
  br label %103

103:                                              ; preds = %97, %93
  %104 = phi i32 [ %96, %93 ], [ %102, %97 ]
  store i32 %104, ptr %15, align 4, !tbaa !9
  call void @llvm.lifetime.start.p0(i64 8, ptr %16) #2
  call void @llvm.lifetime.start.p0(i64 8, ptr %17) #2
  call void @llvm.lifetime.start.p0(i64 4, ptr %18) #2
  store i32 2, ptr %18, align 4, !tbaa !9
  call void @llvm.lifetime.start.p0(i64 4, ptr %19) #2
  %105 = load i32, ptr %7, align 4, !tbaa !9
  %106 = load ptr, ptr %9, align 8, !tbaa !32
  %107 = getelementptr inbounds i32, ptr %106, i64 0
  store i32 %105, ptr %107, align 4, !tbaa !9
  %108 = load i32, ptr %8, align 4, !tbaa !9
  %109 = load ptr, ptr %9, align 8, !tbaa !32
  %110 = getelementptr inbounds i32, ptr %109, i64 1
  store i32 %108, ptr %110, align 4, !tbaa !9
  %111 = load ptr, ptr %6, align 8, !tbaa !4
  %112 = getelementptr inbounds nuw %struct.AVMotionEstContext, ptr %111, i32 0, i32 14
  %113 = load ptr, ptr %112, align 8, !tbaa !17
  %114 = load ptr, ptr %6, align 8, !tbaa !4
  %115 = load i32, ptr %7, align 4, !tbaa !9
  %116 = load i32, ptr %8, align 4, !tbaa !9
  %117 = load i32, ptr %7, align 4, !tbaa !9
  %118 = load i32, ptr %8, align 4, !tbaa !9
  %119 = call i64 %113(ptr noundef %114, i32 noundef %115, i32 noundef %116, i32 noundef %117, i32 noundef %118)
  store i64 %119, ptr %17, align 8, !tbaa !26
  %120 = icmp ne i64 %119, 0
  br i1 %120, label %123, label %121

121:                                              ; preds = %103
  %122 = load i64, ptr %17, align 8, !tbaa !26
  store i64 %122, ptr %5, align 8
  store i32 1, ptr %20, align 4
  br label %272

123:                                              ; preds = %103
  br label %124

124:                                              ; preds = %267, %123
  %125 = load ptr, ptr %9, align 8, !tbaa !32
  %126 = getelementptr inbounds i32, ptr %125, i64 0
  %127 = load i32, ptr %126, align 4, !tbaa !9
  store i32 %127, ptr %10, align 4, !tbaa !9
  %128 = load ptr, ptr %9, align 8, !tbaa !32
  %129 = getelementptr inbounds i32, ptr %128, i64 1
  %130 = load i32, ptr %129, align 4, !tbaa !9
  store i32 %130, ptr %11, align 4, !tbaa !9
  store i32 0, ptr %19, align 4, !tbaa !9
  br label %131

131:                                              ; preds = %248, %124
  %132 = load i32, ptr %19, align 4, !tbaa !9
  %133 = icmp slt i32 %132, 8
  br i1 %133, label %134, label %251

134:                                              ; preds = %131
  %135 = load i32, ptr %10, align 4, !tbaa !9
  %136 = load i32, ptr %19, align 4, !tbaa !9
  %137 = sext i32 %136 to i64
  %138 = getelementptr inbounds [8 x [2 x i8]], ptr @sqr1, i64 0, i64 %137
  %139 = getelementptr inbounds [2 x i8], ptr %138, i64 0, i64 0
  %140 = load i8, ptr %139, align 2, !tbaa !28
  %141 = sext i8 %140 to i32
  %142 = load i32, ptr %18, align 4, !tbaa !9
  %143 = mul nsw i32 %141, %142
  %144 = add nsw i32 %135, %143
  %145 = load i32, ptr %12, align 4, !tbaa !9
  %146 = icmp sge i32 %144, %145
  br i1 %146, label %147, label %247

147:                                              ; preds = %134
  %148 = load i32, ptr %10, align 4, !tbaa !9
  %149 = load i32, ptr %19, align 4, !tbaa !9
  %150 = sext i32 %149 to i64
  %151 = getelementptr inbounds [8 x [2 x i8]], ptr @sqr1, i64 0, i64 %150
  %152 = getelementptr inbounds [2 x i8], ptr %151, i64 0, i64 0
  %153 = load i8, ptr %152, align 2, !tbaa !28
  %154 = sext i8 %153 to i32
  %155 = load i32, ptr %18, align 4, !tbaa !9
  %156 = mul nsw i32 %154, %155
  %157 = add nsw i32 %148, %156
  %158 = load i32, ptr %14, align 4, !tbaa !9
  %159 = icmp sle i32 %157, %158
  br i1 %159, label %160, label %247

160:                                              ; preds = %147
  %161 = load i32, ptr %11, align 4, !tbaa !9
  %162 = load i32, ptr %19, align 4, !tbaa !9
  %163 = sext i32 %162 to i64
  %164 = getelementptr inbounds [8 x [2 x i8]], ptr @sqr1, i64 0, i64 %163
  %165 = getelementptr inbounds [2 x i8], ptr %164, i64 0, i64 1
  %166 = load i8, ptr %165, align 1, !tbaa !28
  %167 = sext i8 %166 to i32
  %168 = load i32, ptr %18, align 4, !tbaa !9
  %169 = mul nsw i32 %167, %168
  %170 = add nsw i32 %161, %169
  %171 = load i32, ptr %13, align 4, !tbaa !9
  %172 = icmp sge i32 %170, %171
  br i1 %172, label %173, label %247

173:                                              ; preds = %160
  %174 = load i32, ptr %11, align 4, !tbaa !9
  %175 = load i32, ptr %19, align 4, !tbaa !9
  %176 = sext i32 %175 to i64
  %177 = getelementptr inbounds [8 x [2 x i8]], ptr @sqr1, i64 0, i64 %176
  %178 = getelementptr inbounds [2 x i8], ptr %177, i64 0, i64 1
  %179 = load i8, ptr %178, align 1, !tbaa !28
  %180 = sext i8 %179 to i32
  %181 = load i32, ptr %18, align 4, !tbaa !9
  %182 = mul nsw i32 %180, %181
  %183 = add nsw i32 %174, %182
  %184 = load i32, ptr %15, align 4, !tbaa !9
  %185 = icmp sle i32 %183, %184
  br i1 %185, label %186, label %247

186:                                              ; preds = %173
  br label %187

187:                                              ; preds = %186
  %188 = load ptr, ptr %6, align 8, !tbaa !4
  %189 = getelementptr inbounds nuw %struct.AVMotionEstContext, ptr %188, i32 0, i32 14
  %190 = load ptr, ptr %189, align 8, !tbaa !17
  %191 = load ptr, ptr %6, align 8, !tbaa !4
  %192 = load i32, ptr %7, align 4, !tbaa !9
  %193 = load i32, ptr %8, align 4, !tbaa !9
  %194 = load i32, ptr %10, align 4, !tbaa !9
  %195 = load i32, ptr %19, align 4, !tbaa !9
  %196 = sext i32 %195 to i64
  %197 = getelementptr inbounds [8 x [2 x i8]], ptr @sqr1, i64 0, i64 %196
  %198 = getelementptr inbounds [2 x i8], ptr %197, i64 0, i64 0
  %199 = load i8, ptr %198, align 2, !tbaa !28
  %200 = sext i8 %199 to i32
  %201 = load i32, ptr %18, align 4, !tbaa !9
  %202 = mul nsw i32 %200, %201
  %203 = add nsw i32 %194, %202
  %204 = load i32, ptr %11, align 4, !tbaa !9
  %205 = load i32, ptr %19, align 4, !tbaa !9
  %206 = sext i32 %205 to i64
  %207 = getelementptr inbounds [8 x [2 x i8]], ptr @sqr1, i64 0, i64 %206
  %208 = getelementptr inbounds [2 x i8], ptr %207, i64 0, i64 1
  %209 = load i8, ptr %208, align 1, !tbaa !28
  %210 = sext i8 %209 to i32
  %211 = load i32, ptr %18, align 4, !tbaa !9
  %212 = mul nsw i32 %210, %211
  %213 = add nsw i32 %204, %212
  %214 = call i64 %190(ptr noundef %191, i32 noundef %192, i32 noundef %193, i32 noundef %203, i32 noundef %213)
  store i64 %214, ptr %16, align 8, !tbaa !26
  %215 = load i64, ptr %16, align 8, !tbaa !26
  %216 = load i64, ptr %17, align 8, !tbaa !26
  %217 = icmp ult i64 %215, %216
  br i1 %217, label %218, label %244

218:                                              ; preds = %187
  %219 = load i64, ptr %16, align 8, !tbaa !26
  store i64 %219, ptr %17, align 8, !tbaa !26
  %220 = load i32, ptr %10, align 4, !tbaa !9
  %221 = load i32, ptr %19, align 4, !tbaa !9
  %222 = sext i32 %221 to i64
  %223 = getelementptr inbounds [8 x [2 x i8]], ptr @sqr1, i64 0, i64 %222
  %224 = getelementptr inbounds [2 x i8], ptr %223, i64 0, i64 0
  %225 = load i8, ptr %224, align 2, !tbaa !28
  %226 = sext i8 %225 to i32
  %227 = load i32, ptr %18, align 4, !tbaa !9
  %228 = mul nsw i32 %226, %227
  %229 = add nsw i32 %220, %228
  %230 = load ptr, ptr %9, align 8, !tbaa !32
  %231 = getelementptr inbounds i32, ptr %230, i64 0
  store i32 %229, ptr %231, align 4, !tbaa !9
  %232 = load i32, ptr %11, align 4, !tbaa !9
  %233 = load i32, ptr %19, align 4, !tbaa !9
  %234 = sext i32 %233 to i64
  %235 = getelementptr inbounds [8 x [2 x i8]], ptr @sqr1, i64 0, i64 %234
  %236 = getelementptr inbounds [2 x i8], ptr %235, i64 0, i64 1
  %237 = load i8, ptr %236, align 1, !tbaa !28
  %238 = sext i8 %237 to i32
  %239 = load i32, ptr %18, align 4, !tbaa !9
  %240 = mul nsw i32 %238, %239
  %241 = add nsw i32 %232, %240
  %242 = load ptr, ptr %9, align 8, !tbaa !32
  %243 = getelementptr inbounds i32, ptr %242, i64 1
  store i32 %241, ptr %243, align 4, !tbaa !9
  br label %244

244:                                              ; preds = %218, %187
  br label %245

245:                                              ; preds = %244
  br label %246

246:                                              ; preds = %245
  br label %247

247:                                              ; preds = %246, %173, %160, %147, %134
  br label %248

248:                                              ; preds = %247
  %249 = load i32, ptr %19, align 4, !tbaa !9
  %250 = add nsw i32 %249, 1
  store i32 %250, ptr %19, align 4, !tbaa !9
  br label %131, !llvm.loop !44

251:                                              ; preds = %131
  %252 = load i32, ptr %10, align 4, !tbaa !9
  %253 = load ptr, ptr %9, align 8, !tbaa !32
  %254 = getelementptr inbounds i32, ptr %253, i64 0
  %255 = load i32, ptr %254, align 4, !tbaa !9
  %256 = icmp eq i32 %252, %255
  br i1 %256, label %257, label %266

257:                                              ; preds = %251
  %258 = load i32, ptr %11, align 4, !tbaa !9
  %259 = load ptr, ptr %9, align 8, !tbaa !32
  %260 = getelementptr inbounds i32, ptr %259, i64 1
  %261 = load i32, ptr %260, align 4, !tbaa !9
  %262 = icmp eq i32 %258, %261
  br i1 %262, label %263, label %266

263:                                              ; preds = %257
  %264 = load i32, ptr %18, align 4, !tbaa !9
  %265 = ashr i32 %264, 1
  store i32 %265, ptr %18, align 4, !tbaa !9
  br label %266

266:                                              ; preds = %263, %257, %251
  br label %267

267:                                              ; preds = %266
  %268 = load i32, ptr %18, align 4, !tbaa !9
  %269 = icmp sgt i32 %268, 0
  br i1 %269, label %124, label %270, !llvm.loop !45

270:                                              ; preds = %267
  %271 = load i64, ptr %17, align 8, !tbaa !26
  store i64 %271, ptr %5, align 8
  store i32 1, ptr %20, align 4
  br label %272

272:                                              ; preds = %270, %121
  call void @llvm.lifetime.end.p0(i64 4, ptr %19) #2
  call void @llvm.lifetime.end.p0(i64 4, ptr %18) #2
  call void @llvm.lifetime.end.p0(i64 8, ptr %17) #2
  call void @llvm.lifetime.end.p0(i64 8, ptr %16) #2
  call void @llvm.lifetime.end.p0(i64 4, ptr %15) #2
  call void @llvm.lifetime.end.p0(i64 4, ptr %14) #2
  call void @llvm.lifetime.end.p0(i64 4, ptr %13) #2
  call void @llvm.lifetime.end.p0(i64 4, ptr %12) #2
  call void @llvm.lifetime.end.p0(i64 4, ptr %11) #2
  call void @llvm.lifetime.end.p0(i64 4, ptr %10) #2
  %273 = load i64, ptr %5, align 8
  ret i64 %273
}