; Function Attrs: nounwind uwtable
define i64 @ff_me_search_fss(ptr noundef %0, i32 noundef %1, i32 noundef %2, ptr noundef captures(none) initializes((0, 8)) %3) local_unnamed_addr #2 {
  %5 = getelementptr inbounds nuw i8, ptr %0, i64 36
  %6 = load i32, ptr %5, align 4, !tbaa !15
  %7 = getelementptr inbounds nuw i8, ptr %0, i64 24
  %8 = load i32, ptr %7, align 8, !tbaa !13
  %9 = sub nsw i32 %1, %8
  %. = tail call i32 @llvm.smax.i32(i32 %6, i32 %9)
  %10 = getelementptr inbounds nuw i8, ptr %0, i64 44
  %11 = load i32, ptr %10, align 4, !tbaa !17
  %12 = sub nsw i32 %2, %8
  %13 = tail call i32 @llvm.smax.i32(i32 %11, i32 %12)
  %14 = add nsw i32 %8, %1
  %15 = getelementptr inbounds nuw i8, ptr %0, i64 40
  %16 = load i32, ptr %15, align 8, !tbaa !16
  %17 = tail call i32 @llvm.smin.i32(i32 %14, i32 %16)
  %18 = add nsw i32 %8, %2
  %19 = getelementptr inbounds nuw i8, ptr %0, i64 48
  %20 = load i32, ptr %19, align 8, !tbaa !18
  %21 = tail call i32 @llvm.smin.i32(i32 %18, i32 %20)
  store i32 %1, ptr %3, align 4, !tbaa !26
  %22 = getelementptr inbounds nuw i8, ptr %3, i64 4
  store i32 %2, ptr %22, align 4, !tbaa !26
  %23 = getelementptr inbounds nuw i8, ptr %0, i64 232
  %24 = load ptr, ptr %23, align 8, !tbaa !14
  %25 = tail call i64 %24(ptr noundef %0, i32 noundef %1, i32 noundef %2, i32 noundef %1, i32 noundef %2) #4
  %.not = icmp eq i64 %25, 0
  br i1 %.not, label %.loopexit, label %.preheader.preheader

.preheader.preheader:                             ; preds = %4
  %.pre = load i32, ptr %3, align 4, !tbaa !26
  br label %.preheader

.preheader:                                       ; preds = %.preheader.preheader, %53
  %26 = phi i32 [ %47, %53 ], [ %.pre, %.preheader.preheader ]
  %.084 = phi i64 [ %.2, %53 ], [ %25, %.preheader.preheader ]
  %.083 = phi i32 [ %.1, %53 ], [ 2, %.preheader.preheader ]
  %27 = load i32, ptr %22, align 4, !tbaa !26
  br label %28

28:                                               ; preds = %.preheader, %45
  %indvars.iv = phi i64 [ 0, %.preheader ], [ %indvars.iv.next, %45 ]
  %.185106 = phi i64 [ %.084, %.preheader ], [ %.2, %45 ]
  %29 = getelementptr inbounds nuw [8 x [2 x i8]], ptr @sqr1, i64 0, i64 %indvars.iv
  %30 = load i8, ptr %29, align 2, !tbaa !22
  %31 = sext i8 %30 to i32
  %32 = mul nsw i32 %.083, %31
  %33 = add nsw i32 %32, %26
  %.not101 = icmp slt i32 %33, %.
  %.not102 = icmp sgt i32 %33, %17
  %or.cond = select i1 %.not101, i1 true, i1 %.not102
  br i1 %or.cond, label %45, label %34

34:                                               ; preds = %28
  %35 = getelementptr inbounds nuw i8, ptr %29, i64 1
  %36 = load i8, ptr %35, align 1, !tbaa !22
  %37 = sext i8 %36 to i32
  %38 = mul nsw i32 %.083, %37
  %39 = add nsw i32 %38, %27
  %.not103 = icmp slt i32 %39, %13
  %.not104 = icmp sgt i32 %39, %21
  %or.cond105 = select i1 %.not103, i1 true, i1 %.not104
  br i1 %or.cond105, label %45, label %40

40:                                               ; preds = %34
  %41 = load ptr, ptr %23, align 8, !tbaa !14
  %42 = tail call i64 %41(ptr noundef %0, i32 noundef %1, i32 noundef %2, i32 noundef %33, i32 noundef %39) #4
  %43 = icmp ult i64 %42, %.185106
  br i1 %43, label %44, label %45

44:                                               ; preds = %40
  store i32 %33, ptr %3, align 4, !tbaa !26
  store i32 %39, ptr %22, align 4, !tbaa !26
  br label %45

45:                                               ; preds = %28, %34, %44, %40
  %.2 = phi i64 [ %42, %44 ], [ %.185106, %40 ], [ %.185106, %34 ], [ %.185106, %28 ]
  %indvars.iv.next = add nuw nsw i64 %indvars.iv, 1
  %exitcond.not = icmp eq i64 %indvars.iv.next, 8
  br i1 %exitcond.not, label %46, label %28, !llvm.loop !37

46:                                               ; preds = %45
  %47 = load i32, ptr %3, align 4, !tbaa !26
  %48 = icmp eq i32 %26, %47
  br i1 %48, label %49, label %53

49:                                               ; preds = %46
  %50 = load i32, ptr %22, align 4, !tbaa !26
  %51 = icmp eq i32 %27, %50
  %52 = zext i1 %51 to i32
  %spec.select = lshr i32 %.083, %52
  br label %53

53:                                               ; preds = %49, %46
  %.1 = phi i32 [ %.083, %46 ], [ %spec.select, %49 ]
  %.not100 = icmp eq i32 %.1, 0
  br i1 %.not100, label %.loopexit, label %.preheader, !llvm.loop !38

.loopexit:                                        ; preds = %53, %4
  %.086 = phi i64 [ 0, %4 ], [ %.2, %53 ]
  ret i64 %.086
}